target datalayout = "e-m:e-p270:32:32-p271:32:32-p272:64:64-i64:64-i128:128-f80:128-n8:16:32:64-S128"
target triple = "x86_64-pc-linux-gnu"

%"class.cv::utils::trace::details::Region" = type <{ ptr, i32, [4 x i8] }>
%"class.cv::hfloat" = type { i16 }
%union.Cv32suf = type { i32 }
%"class.cv::Size_" = type { i32, i32 }

; Function Attrs: mustprogress nounwind uwtable
define internal noundef signext i8 @_ZN2cvL13saturate_castIaEET_i(i32 noundef %0) #2 {
  %2 = alloca i32, align 4
  store i32 %0, ptr %2, align 4
  %3 = load i32, ptr %2, align 4
  %4 = sub nsw i32 %3, -128
  %5 = icmp ule i32 %4, 255
  br i1 %5, label %6, label %8

6:                                                ; preds = %1
  %7 = load i32, ptr %2, align 4
  br label %12

8:                                                ; preds = %1
  %9 = load i32, ptr %2, align 4
  %10 = icmp sgt i32 %9, 0
  %11 = select i1 %10, i32 127, i32 -128
  br label %12

12:                                               ; preds = %8, %6
  %13 = phi i32 [ %7, %6 ], [ %11, %8 ]
  %14 = trunc i32 %13 to i8
  ret i8 %14
}

; Function Attrs: mustprogress uwtable
define internal noundef i32 @_ZL7cvRoundf(float noundef %0) #9 {
  %2 = alloca <4 x float>, align 16
  %3 = alloca float, align 4
  %4 = alloca <4 x float>, align 16
  %5 = alloca float, align 4
  %6 = alloca <4 x float>, align 16
  store float %0, ptr %5, align 4
  %7 = load float, ptr %5, align 4
  store float %7, ptr %3, align 4
  %8 = load float, ptr %3, align 4
  %9 = insertelement <4 x float> poison, float %8, i32 0
  %10 = insertelement <4 x float> %9, float 0.000000e+00, i32 1
  %11 = insertelement <4 x float> %10, float 0.000000e+00, i32 2
  %12 = insertelement <4 x float> %11, float 0.000000e+00, i32 3
  store <4 x float> %12, ptr %4, align 16
  %13 = load <4 x float>, ptr %4, align 16
  store <4 x float> %13, ptr %6, align 16
  %14 = load <4 x float>, ptr %6, align 16
  store <4 x float> %14, ptr %2, align 16
  %15 = load <4 x float>, ptr %2, align 16
  %16 = call noundef i32 @llvm.x86.sse.cvtss2si(<4 x float> %15)
  ret i32 %16
}

; Function Attrs: mustprogress uwtable
define internal noundef signext i8 @_ZN2cvL13saturate_castIaEET_f(float noundef %0) #0 {
  %2 = alloca float, align 4
  %3 = alloca i32, align 4
  store float %0, ptr %2, align 4
  %4 = load float, ptr %2, align 4
  %5 = call noundef i32 @_ZL7cvRoundf(float noundef %4)
  store i32 %5, ptr %3, align 4
  %6 = load i32, ptr %3, align 4
  %7 = call noundef signext i8 @_ZN2cvL13saturate_castIaEET_i(i32 noundef %6)
  ret i8 %7
}

; Function Attrs: mustprogress nounwind uwtable
define linkonce_odr hidden noundef float @_ZNK2cv6hfloatcvfEv(ptr noundef nonnull align 2 dereferenceable(2) %0) #2 comdat align 2 {
  %2 = alloca ptr, align 8
  %3 = alloca %union.Cv32suf, align 4
  %4 = alloca i32, align 4
  %5 = alloca i32, align 4
  %6 = alloca i32, align 4
  store ptr %0, ptr %2, align 8
  %7 = load ptr, ptr %2, align 8
  %8 = getelementptr inbounds %"class.cv::hfloat", ptr %7, i32 0, i32 0
  %9 = load i16, ptr %8, align 2
  %10 = zext i16 %9 to i32
  %11 = and i32 %10, 32767
  %12 = shl i32 %11, 13
  %13 = add nsw i32 %12, 939524096
  store i32 %13, ptr %4, align 4
  %14 = getelementptr inbounds %"class.cv::hfloat", ptr %7, i32 0, i32 0
  %15 = load i16, ptr %14, align 2
  %16 = zext i16 %15 to i32
  %17 = and i32 %16, 32768
  %18 = shl i32 %17, 16
  store i32 %18, ptr %5, align 4
  %19 = getelementptr inbounds %"class.cv::hfloat", ptr %7, i32 0, i32 0
  %20 = load i16, ptr %19, align 2
  %21 = zext i16 %20 to i32
  %22 = and i32 %21, 31744
  store i32 %22, ptr %6, align 4
  %23 = load i32, ptr %4, align 4
  %24 = add i32 %23, 8388608
  store i32 %24, ptr %3, align 4
  %25 = load i32, ptr %6, align 4
  %26 = icmp uge i32 %25, 31744
  br i1 %26, label %27, label %30

27:                                               ; preds = %1
  %28 = load i32, ptr %4, align 4
  %29 = add i32 %28, 939524096
  br label %41

30:                                               ; preds = %1
  %31 = load i32, ptr %6, align 4
  %32 = icmp eq i32 %31, 0
  br i1 %32, label %33, label %37

33:                                               ; preds = %30
  %34 = load float, ptr %3, align 4
  %35 = fsub float %34, 0x3F10000000000000
  store float %35, ptr %3, align 4
  %36 = load i32, ptr %3, align 4
  br label %39

37:                                               ; preds = %30
  %38 = load i32, ptr %4, align 4
  br label %39

39:                                               ; preds = %37, %33
  %40 = phi i32 [ %36, %33 ], [ %38, %37 ]
  br label %41

41:                                               ; preds = %39, %27
  %42 = phi i32 [ %29, %27 ], [ %40, %39 ]
  %43 = load i32, ptr %5, align 4
  %44 = or i32 %42, %43
  store i32 %44, ptr %3, align 4
  %45 = load float, ptr %3, align 4
  ret float %45
}

; Function Attrs: mustprogress uwtable
define internal noundef signext i8 @_ZN2cvL13saturate_castIaEET_NS_6hfloatE(i16 %0) #0 {
  %2 = alloca %"class.cv::hfloat", align 2
  %3 = getelementptr inbounds %"class.cv::hfloat", ptr %2, i32 0, i32 0
  store i16 %0, ptr %3, align 2
  %4 = call noundef float @_ZNK2cv6hfloatcvfEv(ptr noundef nonnull align 2 dereferenceable(2) %2)
  %5 = call noundef signext i8 @_ZN2cvL13saturate_castIaEET_f(float noundef %4)
  ret i8 %5
}

; Function Attrs: mustprogress nounwind uwtable
define linkonce_odr hidden void @_ZN2cv5utils5trace7details6RegionD2Ev(ptr noundef nonnull align 8 dereferenceable(12) %0) unnamed_addr #2 comdat align 2 personality ptr @__gxx_personality_v0 {
  %2 = alloca ptr, align 8
  store ptr %0, ptr %2, align 8
  %3 = load ptr, ptr %2, align 8
  %4 = getelementptr inbounds %"class.cv::utils::trace::details::Region", ptr %3, i32 0, i32 1
  %5 = load i32, ptr %4, align 8
  %6 = icmp ne i32 %5, 0
  br i1 %6, label %7, label %9

7:                                                ; preds = %1
  invoke void @_ZN2cv5utils5trace7details6Region7destroyEv(ptr noundef nonnull align 8 dereferenceable(12) %3)
          to label %8 unwind label %10

8:                                                ; preds = %7
  br label %9

9:                                                ; preds = %8, %1
  ret void

10:                                               ; preds = %7
  %11 = landingpad { ptr, i32 }
          catch ptr null
  %12 = extractvalue { ptr, i32 } %11, 0
  call void @__clang_call_terminate(ptr %12) #12
  unreachable
}

; Function Attrs: mustprogress uwtable
define internal void @_ZN2cv12cpu_baselineL4cvt_INS_6hfloatEaNS_12hal_baseline5v_regIfLi4EEEEEvPKT_mPT0_mNS_5Size_IiEE(ptr noundef %0, i64 noundef %1, ptr noundef %2, i64 noundef %3, i64 %4) #0 {
  %6 = alloca %"class.cv::Size_", align 4
  %7 = alloca ptr, align 8
  %8 = alloca i64, align 8
  %9 = alloca ptr, align 8
  %10 = alloca i64, align 8
  %11 = alloca i32, align 4
  %12 = alloca i32, align 4
  %13 = alloca %"class.cv::hfloat", align 2
  store i64 %4, ptr %6, align 4
  store ptr %0, ptr %7, align 8
  store i64 %1, ptr %8, align 8
  store ptr %2, ptr %9, align 8
  store i64 %3, ptr %10, align 8
  %14 = load i64, ptr %8, align 8
  %15 = udiv i64 %14, 2
  store i64 %15, ptr %8, align 8
  %16 = load i64, ptr %10, align 8
  %17 = udiv i64 %16, 1
  store i64 %17, ptr %10, align 8
  store i32 0, ptr %11, align 4
  br label %18

18:                                               ; preds = %45, %5
  %19 = load i32, ptr %11, align 4
  %20 = getelementptr inbounds %"class.cv::Size_", ptr %6, i32 0, i32 1
  %21 = load i32, ptr %20, align 4
  %22 = icmp slt i32 %19, %21
  br i1 %22, label %23, label %54

23:                                               ; preds = %18
  store i32 0, ptr %12, align 4
  br label %24

24:                                               ; preds = %41, %23
  %25 = load i32, ptr %12, align 4
  %26 = getelementptr inbounds %"class.cv::Size_", ptr %6, i32 0, i32 0
  %27 = load i32, ptr %26, align 4
  %28 = icmp slt i32 %25, %27
  br i1 %28, label %29, label %44

29:                                               ; preds = %24
  %30 = load ptr, ptr %7, align 8
  %31 = load i32, ptr %12, align 4
  %32 = sext i32 %31 to i64
  %33 = getelementptr inbounds %"class.cv::hfloat", ptr %30, i64 %32
  call void @llvm.memcpy.p0.p0.i64(ptr align 2 %13, ptr align 2 %33, i64 2, i1 false)
  %34 = getelementptr inbounds %"class.cv::hfloat", ptr %13, i32 0, i32 0
  %35 = load i16, ptr %34, align 2
  %36 = call noundef signext i8 @_ZN2cvL13saturate_castIaEET_NS_6hfloatE(i16 %35)
  %37 = load ptr, ptr %9, align 8
  %38 = load i32, ptr %12, align 4
  %39 = sext i32 %38 to i64
  %40 = getelementptr inbounds i8, ptr %37, i64 %39
  store i8 %36, ptr %40, align 1
  br label %41

41:                                               ; preds = %29
  %42 = load i32, ptr %12, align 4
  %43 = add nsw i32 %42, 1
  store i32 %43, ptr %12, align 4
  br label %24, !llvm.loop !38

44:                                               ; preds = %24
  br label %45

45:                                               ; preds = %44
  %46 = load i32, ptr %11, align 4
  %47 = add nsw i32 %46, 1
  store i32 %47, ptr %11, align 4
  %48 = load i64, ptr %8, align 8
  %49 = load ptr, ptr %7, align 8
  %50 = getelementptr inbounds %"class.cv::hfloat", ptr %49, i64 %48
  store ptr %50, ptr %7, align 8
  %51 = load i64, ptr %10, align 8
  %52 = load ptr, ptr %9, align 8
  %53 = getelementptr inbounds i8, ptr %52, i64 %51
  store ptr %53, ptr %9, align 8
  br label %18, !llvm.loop !39

54:                                               ; preds = %18
  ret void
}

; Function Attrs: mustprogress uwtable
define internal void @_ZN2cv12cpu_baselineL8cvt16f8sEPKhmS2_mPhmNS_5Size_IiEEPv(ptr noundef %0, i64 noundef %1, ptr noundef %2, i64 noundef %3, ptr noundef %4, i64 noundef %5, i64 %6, ptr noundef %7) #0 personality ptr @__gxx_personality_v0 {
  %9 = alloca %"class.cv::Size_", align 4
  %10 = alloca ptr, align 8
  %11 = alloca i64, align 8
  %12 = alloca ptr, align 8
  %13 = alloca i64, align 8
  %14 = alloca ptr, align 8
  %15 = alloca i64, align 8
  %16 = alloca ptr, align 8
  %17 = alloca %"class.cv::utils::trace::details::Region", align 8
  %18 = alloca ptr, align 8
  %19 = alloca ptr, align 8
  %20 = alloca %"class.cv::Size_", align 4
  %21 = alloca ptr, align 8
  %22 = alloca i32, align 4
  store i64 %6, ptr %9, align 4
  store ptr %0, ptr %10, align 8
  store i64 %1, ptr %11, align 8
  store ptr %2, ptr %12, align 8
  store i64 %3, ptr %13, align 8
  store ptr %4, ptr %14, align 8
  store i64 %5, ptr %15, align 8
  store ptr %7, ptr %16, align 8
  call void @_ZN2cv5utils5trace7details6RegionC1ERKNS3_21LocationStaticStorageE(ptr noundef nonnull align 8 dereferenceable(12) %17, ptr noundef nonnull align 8 dereferenceable(32) @_ZZN2cv12cpu_baselineL8cvt16f8sEPKhmS2_mPhmNS_5Size_IiEEPvE25__cv_trace_location_fn256)
  %23 = load ptr, ptr %10, align 8
  store ptr %23, ptr %18, align 8
  %24 = load ptr, ptr %14, align 8
  store ptr %24, ptr %19, align 8
  %25 = load ptr, ptr %18, align 8
  %26 = load i64, ptr %11, align 8
  %27 = load ptr, ptr %19, align 8
  %28 = load i64, ptr %15, align 8
  call void @llvm.memcpy.p0.p0.i64(ptr align 4 %20, ptr align 4 %9, i64 8, i1 false)
  %29 = load i64, ptr %20, align 4
  invoke void @_ZN2cv12cpu_baselineL4cvt_INS_6hfloatEaNS_12hal_baseline5v_regIfLi4EEEEEvPKT_mPT0_mNS_5Size_IiEE(ptr noundef %25, i64 noundef %26, ptr noundef %27, i64 noundef %28, i64 %29)
          to label %30 unwind label %31

30:                                               ; preds = %8
  call void @_ZN2cv5utils5trace7details6RegionD2Ev(ptr noundef nonnull align 8 dereferenceable(12) %17) #11
  ret void

31:                                               ; preds = %8
  %32 = landingpad { ptr, i32 }
          cleanup
  %33 = extractvalue { ptr, i32 } %32, 0
  store ptr %33, ptr %21, align 8
  %34 = extractvalue { ptr, i32 } %32, 1
  store i32 %34, ptr %22, align 4
  call void @_ZN2cv5utils5trace7details6RegionD2Ev(ptr noundef nonnull align 8 dereferenceable(12) %17) #11
  br label %35

35:                                               ; preds = %31
  %36 = load ptr, ptr %21, align 8
  %37 = load i32, ptr %22, align 4
  %38 = insertvalue { ptr, i32 } poison, ptr %36, 0
  %39 = insertvalue { ptr, i32 } %38, i32 %37, 1
  resume { ptr, i32 } %39
}