; Function Attrs: mustprogress uwtable
define internal void @_ZN2cv12cpu_baselineL8cvt16f8sEPKhmS2_mPhmNS_5Size_IiEEPv(ptr nocapture noundef readonly %0, i64 noundef %1, ptr nocapture readnone %2, i64 %3, ptr nocapture noundef writeonly %4, i64 noundef %5, i64 %6, ptr nocapture readnone %7) #5 personality ptr @__gxx_personality_v0 {
  %9 = alloca %"class.cv::utils::trace::details::Region", align 8
  call void @_ZN2cv5utils5trace7details6RegionC1ERKNS3_21LocationStaticStorageE(ptr noundef nonnull align 8 dereferenceable(12) %9, ptr noundef nonnull align 8 dereferenceable(32) @_ZZN2cv12cpu_baselineL8cvt16f8sEPKhmS2_mPhmNS_5Size_IiEEPvE25__cv_trace_location_fn256)
  %.sroa.2.0.extract.shift.i = lshr i64 %6, 32
  %.sroa.2.0.extract.trunc.i = trunc nuw i64 %.sroa.2.0.extract.shift.i to i32
  %10 = lshr i64 %1, 1
  %11 = icmp sgt i32 %.sroa.2.0.extract.trunc.i, 0
  %.sroa.013.0.extract.trunc.i = trunc i64 %6 to i32
  %12 = icmp sgt i32 %.sroa.013.0.extract.trunc.i, 0
  %or.cond.i = and i1 %12, %11
  br i1 %or.cond.i, label %.preheader.us.preheader.i, label %_ZN2cv12cpu_baselineL4cvt_INS_6hfloatEaNS_12hal_baseline5v_regIfLi4EEEEEvPKT_mPT0_mNS_5Size_IiEE.exit

.preheader.us.preheader.i:                        ; preds = %8
  %wide.trip.count.i = and i64 %6, 2147483647
  br label %.preheader.us.i

.preheader.us.i:                                  ; preds = %._crit_edge.us.i, %.preheader.us.preheader.i
  %.020.us.i = phi ptr [ %38, %._crit_edge.us.i ], [ %0, %.preheader.us.preheader.i ]
  %.01519.us.i = phi i32 [ %37, %._crit_edge.us.i ], [ 0, %.preheader.us.preheader.i ]
  %.01618.us.i = phi ptr [ %39, %._crit_edge.us.i ], [ %4, %.preheader.us.preheader.i ]
  br label %13

13:                                               ; preds = %_ZN2cvL13saturate_castIaEET_NS_6hfloatE.exit.us.i, %.preheader.us.i
  %indvars.iv.i = phi i64 [ 0, %.preheader.us.i ], [ %indvars.iv.next.i, %_ZN2cvL13saturate_castIaEET_NS_6hfloatE.exit.us.i ]
  %14 = getelementptr inbounds %"class.cv::hfloat", ptr %.020.us.i, i64 %indvars.iv.i
  %.sroa.0.0.copyload.us.i = load i16, ptr %14, align 2
  %15 = zext i16 %.sroa.0.0.copyload.us.i to i32
  %16 = shl nuw nsw i32 %15, 13
  %17 = and i32 %16, 268427264
  %18 = add nuw nsw i32 %17, 939524096
  %19 = and i32 %15, 31744
  switch i32 %19, label %_ZN2cvL13saturate_castIaEET_NS_6hfloatE.exit.us.i [
    i32 31744, label %25
    i32 0, label %20
  ]

20:                                               ; preds = %13
  %21 = add nuw nsw i32 %17, 947912704
  %22 = bitcast i32 %21 to float
  %23 = fadd float %22, 0xBF10000000000000
  %24 = bitcast float %23 to i32
  br label %_ZN2cvL13saturate_castIaEET_NS_6hfloatE.exit.us.i

25:                                               ; preds = %13
  %26 = or i32 %16, 1879048192
  br label %_ZN2cvL13saturate_castIaEET_NS_6hfloatE.exit.us.i

_ZN2cvL13saturate_castIaEET_NS_6hfloatE.exit.us.i: ; preds = %25, %20, %13
  %27 = phi i32 [ %26, %25 ], [ %24, %20 ], [ %18, %13 ]
  %.signext.i.i.us.i = sext i16 %.sroa.0.0.copyload.us.i to i32
  %28 = and i32 %.signext.i.i.us.i, -2147483648
  %29 = or i32 %27, %28
  %30 = insertelement <4 x i32> poison, i32 %29, i64 0
  %31 = bitcast <4 x i32> %30 to <4 x float>
  %32 = call noundef i32 @llvm.x86.sse.cvtss2si(<4 x float> %31)
  %33 = call i32 @llvm.smax.i32(i32 %32, i32 -128)
  %34 = call i32 @llvm.smin.i32(i32 %33, i32 127)
  %35 = trunc nsw i32 %34 to i8
  %36 = getelementptr inbounds i8, ptr %.01618.us.i, i64 %indvars.iv.i
  store i8 %35, ptr %36, align 1
  %indvars.iv.next.i = add nuw nsw i64 %indvars.iv.i, 1
  %exitcond.not.i = icmp eq i64 %indvars.iv.next.i, %wide.trip.count.i
  br i1 %exitcond.not.i, label %._crit_edge.us.i, label %13, !llvm.loop !36

._crit_edge.us.i:                                 ; preds = %_ZN2cvL13saturate_castIaEET_NS_6hfloatE.exit.us.i
  %37 = add nuw nsw i32 %.01519.us.i, 1
  %38 = getelementptr inbounds %"class.cv::hfloat", ptr %.020.us.i, i64 %10
  %39 = getelementptr inbounds i8, ptr %.01618.us.i, i64 %5
  %exitcond24.not.i = icmp eq i32 %37, %.sroa.2.0.extract.trunc.i
  br i1 %exitcond24.not.i, label %_ZN2cv12cpu_baselineL4cvt_INS_6hfloatEaNS_12hal_baseline5v_regIfLi4EEEEEvPKT_mPT0_mNS_5Size_IiEE.exit, label %.preheader.us.i, !llvm.loop !37

_ZN2cv12cpu_baselineL4cvt_INS_6hfloatEaNS_12hal_baseline5v_regIfLi4EEEEEvPKT_mPT0_mNS_5Size_IiEE.exit: ; preds = %._crit_edge.us.i, %8
  %40 = getelementptr inbounds i8, ptr %9, i64 8
  %41 = load i32, ptr %40, align 8
  %.not.i = icmp eq i32 %41, 0
  br i1 %.not.i, label %_ZN2cv5utils5trace7details6RegionD2Ev.exit, label %42

42:                                               ; preds = %_ZN2cv12cpu_baselineL4cvt_INS_6hfloatEaNS_12hal_baseline5v_regIfLi4EEEEEvPKT_mPT0_mNS_5Size_IiEE.exit
  invoke void @_ZN2cv5utils5trace7details6Region7destroyEv(ptr noundef nonnull align 8 dereferenceable(12) %9)
          to label %_ZN2cv5utils5trace7details6RegionD2Ev.exit unwind label %43

43:                                               ; preds = %42
  %44 = landingpad { ptr, i32 }
          catch ptr null
  %45 = extractvalue { ptr, i32 } %44, 0
  call void @__clang_call_terminate(ptr %45) #14
  unreachable

_ZN2cv5utils5trace7details6RegionD2Ev.exit:       ; preds = %_ZN2cv12cpu_baselineL4cvt_INS_6hfloatEaNS_12hal_baseline5v_regIfLi4EEEEEvPKT_mPT0_mNS_5Size_IiEE.exit, %42
  ret void
}